target datalayout = "e-m:e-p270:32:32-p271:32:32-p272:64:64-i64:64-i128:128-f80:128-n8:16:32:64-S128"
target triple = "x86_64-pc-linux-gnu"

%struct.ScanKeyData = type { i32, i16, i16, i32, i32, %struct.FmgrInfo, i64 }
%struct.FmgrInfo = type { ptr, i32, i16, i8, i8, i8, ptr, ptr, ptr }

; Function Attrs: inlinehint nounwind uwtable
define internal i64 @ObjectIdGetDatum(i32 noundef %0) #2 {
  %2 = alloca i32, align 4
  store i32 %0, ptr %2, align 4
  %3 = load i32, ptr %2, align 4
  %4 = zext i32 %3 to i64
  ret i64 %4
}

; Function Attrs: nounwind uwtable
define dso_local zeroext i1 @is_schema_publication(i32 noundef %0) #0 {
  %2 = alloca i32, align 4
  %3 = alloca ptr, align 8
  %4 = alloca %struct.ScanKeyData, align 8
  %5 = alloca ptr, align 8
  %6 = alloca ptr, align 8
  %7 = alloca i8, align 1
  store i32 %0, ptr %2, align 4
  call void @llvm.lifetime.start.p0(i64 8, ptr %3) #7
  call void @llvm.lifetime.start.p0(i64 72, ptr %4) #7
  call void @llvm.lifetime.start.p0(i64 8, ptr %5) #7
  call void @llvm.lifetime.start.p0(i64 8, ptr %6) #7
  call void @llvm.lifetime.start.p0(i64 1, ptr %7) #7
  store i8 0, ptr %7, align 1
  %8 = call ptr @table_open(i32 noundef 6237, i32 noundef 1)
  store ptr %8, ptr %3, align 8
  %9 = load i32, ptr %2, align 4
  %10 = call i64 @ObjectIdGetDatum(i32 noundef %9)
  call void @ScanKeyInit(ptr noundef %4, i16 noundef signext 2, i16 noundef zeroext 3, i32 noundef 184, i64 noundef %10)
  %11 = load ptr, ptr %3, align 8
  %12 = call ptr @systable_beginscan(ptr noundef %11, i32 noundef 6239, i1 noundef zeroext true, ptr noundef null, i32 noundef 1, ptr noundef %4)
  store ptr %12, ptr %5, align 8
  %13 = load ptr, ptr %5, align 8
  %14 = call ptr @systable_getnext(ptr noundef %13)
  store ptr %14, ptr %6, align 8
  %15 = load ptr, ptr %6, align 8
  %16 = icmp ne ptr %15, null
  %17 = zext i1 %16 to i8
  store i8 %17, ptr %7, align 1
  %18 = load ptr, ptr %5, align 8
  call void @systable_endscan(ptr noundef %18)
  %19 = load ptr, ptr %3, align 8
  call void @table_close(ptr noundef %19, i32 noundef 1)
  %20 = load i8, ptr %7, align 1, !range !4, !noundef !5
  %21 = trunc i8 %20 to i1
  call void @llvm.lifetime.end.p0(i64 1, ptr %7) #7
  call void @llvm.lifetime.end.p0(i64 8, ptr %6) #7
  call void @llvm.lifetime.end.p0(i64 8, ptr %5) #7
  call void @llvm.lifetime.end.p0(i64 72, ptr %4) #7
  call void @llvm.lifetime.end.p0(i64 8, ptr %3) #7
  ret i1 %21
}