; Function Attrs: nounwind uwtable
define dso_local zeroext i1 @is_schema_publication(i32 noundef %0) local_unnamed_addr #0 {
  %2 = alloca %struct.ScanKeyData, align 8
  call void @llvm.lifetime.start.p0(i64 72, ptr nonnull %2) #6
  %3 = tail call ptr @table_open(i32 noundef 6237, i32 noundef 1) #6
  %4 = zext i32 %0 to i64
  call void @ScanKeyInit(ptr noundef nonnull %2, i16 noundef signext 2, i16 noundef zeroext 3, i32 noundef 184, i64 noundef %4) #6
  %5 = call ptr @systable_beginscan(ptr noundef %3, i32 noundef 6239, i1 noundef zeroext true, ptr noundef null, i32 noundef 1, ptr noundef nonnull %2) #6
  %6 = call ptr @systable_getnext(ptr noundef %5) #6
  %7 = icmp ne ptr %6, null
  call void @systable_endscan(ptr noundef %5) #6
  call void @table_close(ptr noundef %3, i32 noundef 1) #6
  call void @llvm.lifetime.end.p0(i64 72, ptr nonnull %2) #6
  ret i1 %7
}